Certificate:
    Data:
        Version: 3 (0x2)
        Serial Number: 2 (0x2)
    Signature Algorithm: sha256WithRSAEncryption
        Issuer: C=FR, ST=Radius, L=Somewhere, O=Example Inc./emailAddress=admin@example.org, CN=Example Certificate Authority
        Validity
            Not Before: Sep  9 02:40:07 2017 GMT
            Not After : Nov  8 02:40:07 2017 GMT
        Subject: C=FR, ST=Radius, O=Example Inc., CN=user@example.org/emailAddress=user@example.org
        Subject Public Key Info:
            Public Key Algorithm: rsaEncryption
                Public-Key: (2048 bit)
                Modulus:
                    00:a8:bf:30:24:e0:52:f4:46:ca:48:c3:51:5b:ef:
                    0e:e2:26:9d:0c:98:0b:0e:15:a1:52:14:bb:cf:03:
                    ca:30:20:24:39:69:a3:85:07:35:47:d0:f8:d7:66:
                    42:90:85:2f:43:35:c5:f5:51:65:d3:f2:9b:86:9f:
                    db:2f:16:05:94:f4:e4:ce:6a:5d:08:a9:3a:cc:74:
                    9e:33:47:0f:fc:ec:7b:ad:b4:d3:b5:9a:f8:38:e9:
                    58:53:ff:6a:2e:d6:f3:39:83:e7:c8:6b:cc:c2:6b:
                    64:4c:91:79:8d:ca:2a:f2:42:2d:44:da:f3:c0:56:
                    e7:c2:21:c6:bf:85:e3:95:60:85:1a:b0:4c:82:bf:
                    cf:94:bd:88:8f:b4:9e:46:34:96:48:fb:c5:29:da:
                    73:a6:65:d7:ae:eb:30:0a:bb:88:be:fe:3c:43:e4:
                    14:ed:b4:7b:2f:05:d6:85:30:2d:08:5e:58:96:f2:
                    68:7e:51:c4:6c:6b:8b:7c:2d:3a:f3:60:34:d1:fb:
                    71:91:c5:a3:65:1d:7a:50:f3:57:b8:0b:25:ae:d6:
                    3e:a6:1d:ad:cc:fd:d6:94:01:92:86:10:f7:c3:ca:
                    df:de:a9:16:db:f7:96:dd:71:76:b4:16:92:23:57:
                    7b:5b:d2:eb:1a:ef:98:b5:d8:49:23:5f:5b:c5:7a:
                    8c:29
                Exponent: 65537 (0x10001)
        X509v3 extensions:
            X509v3 Extended Key Usage: 
                TLS Web Client Authentication
            X509v3 CRL Distribution Points: 

                Full Name:
                  URI:http://www.example.com/example_ca.crl

    Signature Algorithm: sha256WithRSAEncryption
         85:fd:21:7b:be:2a:05:32:3c:c8:b6:fc:87:82:77:53:e0:ba:
         35:78:d0:de:d2:81:ed:c8:76:b4:2d:9f:c6:73:c6:75:68:8e:
         be:5d:15:96:d2:ce:7b:bd:58:51:a6:b4:41:41:2b:df:4d:8d:
         67:58:e1:72:36:47:81:b4:2c:e3:eb:c1:20:52:ad:eb:c1:07:
         b0:d2:22:19:04:a8:00:fd:e5:da:d3:76:23:96:31:b6:54:0e:
         ca:bc:a2:52:9b:29:0b:b0:b3:99:95:e2:cb:c7:dd:d8:c2:42:
         9c:9b:ce:51:25:1c:ac:39:a6:c9:2b:37:6c:72:d3:45:17:ea:
         92:fb:29:db:7a:50:08:f5:52:df:40:fc:3b:d1:03:6f:c3:1e:
         03:29:d6:ef:5b:48:8e:c4:f3:69:18:31:8f:4a:b7:a3:5b:4a:
         51:53:46:6b:7f:5a:85:58:ac:be:1a:e3:a3:13:f5:1d:8e:d7:
         d3:b0:1c:9f:5d:e8:b2:71:9e:33:17:91:c2:38:8d:08:43:f0:
         ca:8c:28:ac:a0:34:ad:c4:4c:1b:cb:9d:4d:62:c9:be:38:1f:
         c8:21:85:55:55:2e:f2:cc:58:15:a1:cc:a1:96:3c:ee:b9:91:
         25:15:f4:60:e0:41:49:d7:aa:bf:b0:3a:b8:ec:5e:21:3d:56:
         54:a1:b9:3a
-----BEGIN CERTIFICATE-----
MIIDzzCCAregAwIBAgIBAjANBgkqhkiG9w0BAQsFADCBkzELMAkGA1UEBhMCRlIx
DzANBgNVBAgMBlJhZGl1czESMBAGA1UEBwwJU29tZXdoZXJlMRUwEwYDVQQKDAxF
eGFtcGxlIEluYy4xIDAeBgkqhkiG9w0BCQEWEWFkbWluQGV4YW1wbGUub3JnMSYw
JAYDVQQDDB1FeGFtcGxlIENlcnRpZmljYXRlIEF1dGhvcml0eTAeFw0xNzA5MDkw
MjQwMDdaFw0xNzExMDgwMjQwMDdaMHExCzAJBgNVBAYTAkZSMQ8wDQYDVQQIDAZS
YWRpdXMxFTATBgNVBAoMDEV4YW1wbGUgSW5jLjEZMBcGA1UEAwwQdXNlckBleGFt
cGxlLm9yZzEfMB0GCSqGSIb3DQEJARYQdXNlckBleGFtcGxlLm9yZzCCASIwDQYJ
KoZIhvcNAQEBBQADggEPADCCAQoCggEBAKi/MCTgUvRGykjDUVvvDuImnQyYCw4V
oVIUu88DyjAgJDlpo4UHNUfQ+NdmQpCFL0M1xfVRZdPym4af2y8WBZT05M5qXQip
Osx0njNHD/zse62007Wa+DjpWFP/ai7W8zmD58hrzMJrZEyReY3KKvJCLUTa88BW
58Ihxr+F45VghRqwTIK/z5S9iI+0nkY0lkj7xSnac6Zl167rMAq7iL7+PEPkFO20
ey8F1oUwLQheWJbyaH5RxGxri3wtOvNgNNH7cZHFo2UdelDzV7gLJa7WPqYdrcz9
1pQBkoYQ98PK396pFtv3lt1xdrQWkiNXe1vS6xrvmLXYSSNfW8V6jCkCAwEAAaNP
ME0wEwYDVR0lBAwwCgYIKwYBBQUHAwIwNgYDVR0fBC8wLTAroCmgJ4YlaHR0cDov
L3d3dy5leGFtcGxlLmNvbS9leGFtcGxlX2NhLmNybDANBgkqhkiG9w0BAQsFAAOC
AQEAhf0he74qBTI8yLb8h4J3U+C6NXjQ3tKB7ch2tC2fxnPGdWiOvl0VltLOe71Y
Uaa0QUEr302NZ1jhcjZHgbQs4+vBIFKt68EHsNIiGQSoAP3l2tN2I5YxtlQOyryi
UpspC7CzmZXiy8fd2MJCnJvOUSUcrDmmySs3bHLTRRfqkvsp23pQCPVS30D8O9ED
b8MeAynW71tIjsTzaRgxj0q3o1tKUVNGa39ahVisvhrjoxP1HY7X07Acn13osnGe
MxeRwjiNCEPwyoworKA0rcRMG8udTWLJvjgfyCGFVVUu8sxYFaHMoZY87rmRJRX0
YOBBSdeqv7A6uOxeIT1WVKG5Og==
-----END CERTIFICATE-----
