Certificate:
    Data:
        Version: 3 (0x2)
        Serial Number: 2 (0x2)
    Signature Algorithm: sha256WithRSAEncryption
        Issuer: C=FR, ST=Radius, L=Somewhere, O=Example Inc./emailAddress=admin@example.com, CN=Example Certificate Authority
        Validity
            Not Before: Sep  9 05:28:46 2017 GMT
            Not After : Sep  9 05:28:46 2018 GMT
        Subject: C=FR, ST=Radius, O=Example Inc., CN=user@example.com/emailAddress=user@example.com
        Subject Public Key Info:
            Public Key Algorithm: rsaEncryption
                Public-Key: (2048 bit)
                Modulus:
                    00:9c:78:29:bc:96:25:cd:5d:b3:0f:3e:1b:2e:92:
                    d7:90:01:b9:24:28:3d:f3:04:0e:fc:ac:de:14:a0:
                    49:bc:70:0c:36:e6:88:1e:96:d5:3b:b7:75:c8:48:
                    f9:3f:19:9b:f0:f3:52:b7:0a:6f:bf:b8:56:9d:2f:
                    e1:a6:7b:9d:40:ac:0b:0d:36:5a:46:9a:76:ec:8e:
                    cd:72:c2:b0:d1:08:4f:f7:6c:75:22:de:ae:e2:9e:
                    5a:23:44:ac:41:cc:88:07:f1:f7:47:c5:7a:d1:a4:
                    d8:c6:3c:bc:ba:f6:21:22:c9:56:73:d3:5b:9e:98:
                    02:cb:e4:1b:cc:ce:48:22:56:bf:94:7c:68:8d:ef:
                    df:e2:b6:9a:b8:11:88:39:ff:d2:b4:9d:da:11:88:
                    4e:6a:d4:44:8e:bc:cf:2e:47:8a:eb:bf:53:e0:82:
                    f4:10:92:6c:c8:c2:82:44:b7:94:7d:1c:b3:8f:08:
                    be:1f:67:09:5b:05:12:d9:f8:d8:4c:ab:60:e5:e9:
                    d8:fc:f4:e0:f2:3c:44:66:19:f9:1a:92:ec:32:d0:
                    61:be:64:d1:93:b7:65:6f:a2:22:81:33:e6:ed:07:
                    ad:af:fd:12:a3:30:1f:33:56:35:05:a6:7f:de:fb:
                    94:03:b9:6d:30:31:0d:91:59:bd:a5:3f:f2:fd:1e:
                    13:8f
                Exponent: 65537 (0x10001)
        X509v3 extensions:
            X509v3 Extended Key Usage: 
                TLS Web Client Authentication
            X509v3 CRL Distribution Points: 

                Full Name:
                  URI:http://www.example.com/example_ca.crl

    Signature Algorithm: sha256WithRSAEncryption
         42:b8:4f:16:65:9e:f3:2f:fa:39:3c:72:fb:8b:07:eb:66:7b:
         9c:b7:42:bb:51:17:01:41:aa:63:17:d4:3d:d4:eb:da:cb:49:
         58:40:9e:c0:a9:c6:49:dc:8c:56:ef:a9:8e:25:1e:14:6a:03:
         e0:68:69:bd:21:33:21:fd:5d:3f:51:34:2c:6f:a7:8c:de:e0:
         ef:60:7c:93:eb:07:e6:92:9a:23:0c:52:df:fb:08:f8:e5:23:
         34:b4:a1:2b:34:2c:cb:8e:3a:c8:4d:ca:f1:bd:3b:cc:2f:6c:
         37:bb:73:5e:63:62:30:04:d5:35:02:2f:9d:cf:c8:ad:72:30:
         a4:02:c3:75:3c:9c:78:bd:ee:dc:49:eb:23:83:8e:ad:a2:7d:
         32:95:4a:df:2b:4c:c3:87:b1:6b:f0:a2:e8:23:f5:03:20:45:
         16:e2:26:d5:dd:08:49:ac:08:5e:69:4f:15:75:83:b7:80:9a:
         07:6c:44:f6:cd:74:70:3b:37:31:92:c7:19:be:63:5b:61:9f:
         11:e5:37:ea:e1:e8:85:9b:cb:29:0d:b7:19:df:1b:a8:58:02:
         92:29:fd:3d:c8:e0:61:35:00:64:fc:85:fc:be:fc:fe:77:32:
         89:47:d9:f7:21:bb:bc:cb:f0:c4:f0:6e:01:8d:35:8f:07:85:
         06:b5:e5:0a
-----BEGIN CERTIFICATE-----
MIIDzzCCAregAwIBAgIBAjANBgkqhkiG9w0BAQsFADCBkzELMAkGA1UEBhMCRlIx
DzANBgNVBAgMBlJhZGl1czESMBAGA1UEBwwJU29tZXdoZXJlMRUwEwYDVQQKDAxF
eGFtcGxlIEluYy4xIDAeBgkqhkiG9w0BCQEWEWFkbWluQGV4YW1wbGUuY29tMSYw
JAYDVQQDDB1FeGFtcGxlIENlcnRpZmljYXRlIEF1dGhvcml0eTAeFw0xNzA5MDkw
NTI4NDZaFw0xODA5MDkwNTI4NDZaMHExCzAJBgNVBAYTAkZSMQ8wDQYDVQQIDAZS
YWRpdXMxFTATBgNVBAoMDEV4YW1wbGUgSW5jLjEZMBcGA1UEAwwQdXNlckBleGFt
cGxlLmNvbTEfMB0GCSqGSIb3DQEJARYQdXNlckBleGFtcGxlLmNvbTCCASIwDQYJ
KoZIhvcNAQEBBQADggEPADCCAQoCggEBAJx4KbyWJc1dsw8+Gy6S15ABuSQoPfME
Dvys3hSgSbxwDDbmiB6W1Tu3dchI+T8Zm/DzUrcKb7+4Vp0v4aZ7nUCsCw02Wkaa
duyOzXLCsNEIT/dsdSLeruKeWiNErEHMiAfx90fFetGk2MY8vLr2ISLJVnPTW56Y
AsvkG8zOSCJWv5R8aI3v3+K2mrgRiDn/0rSd2hGITmrURI68zy5Hiuu/U+CC9BCS
bMjCgkS3lH0cs48Ivh9nCVsFEtn42EyrYOXp2Pz04PI8RGYZ+RqS7DLQYb5k0ZO3
ZW+iIoEz5u0Hra/9EqMwHzNWNQWmf977lAO5bTAxDZFZvaU/8v0eE48CAwEAAaNP
ME0wEwYDVR0lBAwwCgYIKwYBBQUHAwIwNgYDVR0fBC8wLTAroCmgJ4YlaHR0cDov
L3d3dy5leGFtcGxlLmNvbS9leGFtcGxlX2NhLmNybDANBgkqhkiG9w0BAQsFAAOC
AQEAQrhPFmWe8y/6OTxy+4sH62Z7nLdCu1EXAUGqYxfUPdTr2stJWECewKnGSdyM
Vu+pjiUeFGoD4GhpvSEzIf1dP1E0LG+njN7g72B8k+sH5pKaIwxS3/sI+OUjNLSh
KzQsy446yE3K8b07zC9sN7tzXmNiMATVNQIvnc/IrXIwpALDdTyceL3u3EnrI4OO
raJ9MpVK3ytMw4exa/Ci6CP1AyBFFuIm1d0ISawIXmlPFXWDt4CaB2xE9s10cDs3
MZLHGb5jW2GfEeU36uHohZvLKQ23Gd8bqFgCkin9PcjgYTUAZPyF/L78/ncyiUfZ
9yG7vMvwxPBuAY01jweFBrXlCg==
-----END CERTIFICATE-----
