Certificate:
    Data:
        Version: 3 (0x2)
        Serial Number: 1 (0x1)
    Signature Algorithm: sha256WithRSAEncryption
        Issuer: C=FR, ST=Radius, L=Somewhere, O=Example Inc./emailAddress=admin@example.org, CN=Example Certificate Authority
        Validity
            Not Before: Sep  9 02:40:07 2017 GMT
            Not After : Nov  8 02:40:07 2017 GMT
        Subject: C=FR, ST=Radius, O=Example Inc., CN=Example Server Certificate/emailAddress=admin@example.org
        Subject Public Key Info:
            Public Key Algorithm: rsaEncryption
                Public-Key: (2048 bit)
                Modulus:
                    00:93:59:16:9f:86:6e:3f:4f:ae:70:02:85:fb:dc:
                    e6:29:7e:b3:b5:88:b1:ce:7f:17:98:3c:9b:40:0e:
                    9b:f5:0c:8e:ca:77:09:02:cd:95:c4:3d:05:92:45:
                    8c:b4:db:f3:8d:dd:27:e2:31:32:02:37:41:c1:9b:
                    b9:22:10:69:09:ae:ca:ad:dc:5d:e2:43:80:eb:d4:
                    aa:c6:e7:a6:1a:21:f5:44:d8:6b:04:36:35:c4:94:
                    fd:35:4f:3d:dd:17:e1:23:86:02:27:66:08:d9:86:
                    28:5e:cb:bb:de:65:9a:b5:ae:51:d9:46:1f:19:41:
                    c6:1e:4c:b9:62:0d:2e:c4:84:f0:9a:97:69:a9:47:
                    5d:97:64:87:b6:d9:19:b9:1c:83:0c:0a:59:6a:4c:
                    0c:46:d9:5b:45:8c:a8:4f:37:d1:ee:cd:99:f0:1d:
                    0e:2e:54:08:d9:8d:4e:b0:9f:54:82:73:40:75:9c:
                    6c:5d:ce:e8:f0:33:77:b7:1c:ea:8f:96:05:22:35:
                    a6:4b:f2:73:5a:6f:cf:74:bc:de:03:eb:c2:2a:9e:
                    c8:ba:40:51:ed:be:7e:b2:b3:5f:0b:f0:ac:47:33:
                    6e:c1:c4:db:a2:8c:59:12:d2:b2:16:a2:64:ef:4d:
                    d0:8d:bf:8e:67:dd:af:ed:7e:0b:b2:39:71:37:2f:
                    d3:25
                Exponent: 65537 (0x10001)
        X509v3 extensions:
            X509v3 Extended Key Usage: 
                TLS Web Server Authentication
            X509v3 CRL Distribution Points: 

                Full Name:
                  URI:http://www.example.com/example_ca.crl

    Signature Algorithm: sha256WithRSAEncryption
         a4:9f:82:2d:f8:60:b0:b4:79:70:cf:a0:3c:14:6c:60:17:f8:
         0d:d6:e7:52:88:ca:28:79:8f:ec:d2:79:46:0a:c6:8e:ef:6d:
         5e:1f:6a:64:a0:b5:de:99:f8:a3:d5:f2:7c:8f:be:9f:3f:f7:
         17:db:cc:6c:66:a5:35:a6:37:e3:02:5b:c7:1a:2a:86:38:f6:
         f7:97:fb:b1:54:ff:df:16:24:07:11:0a:c0:0d:45:09:07:56:
         ff:88:8d:5e:ef:c4:9e:81:64:c4:07:d4:8a:7a:19:52:dc:ab:
         98:0e:fe:c0:11:a5:07:88:25:85:f4:26:0d:31:4f:6f:e1:53:
         cd:c7:08:af:c7:7a:5f:c6:29:bf:79:ab:e9:41:d5:f0:5e:85:
         39:d8:52:fe:4c:45:6b:e8:ff:cc:ae:10:8a:55:6e:ca:7f:14:
         73:50:71:70:9f:3a:a2:0a:39:ee:b4:0c:96:f7:30:38:c7:12:
         14:dc:16:10:52:c6:09:38:4f:35:80:35:98:84:23:46:24:85:
         87:c8:d3:5b:b3:26:93:4e:d0:f4:0c:95:ba:a6:35:c2:12:3e:
         4e:89:f7:65:38:b3:10:1e:ea:82:63:56:dd:0c:f5:85:ee:7e:
         fd:a4:0b:bf:bd:90:15:ed:63:41:3c:80:a2:55:fa:77:1a:98:
         69:df:c8:71
-----BEGIN CERTIFICATE-----
MIID2jCCAsKgAwIBAgIBATANBgkqhkiG9w0BAQsFADCBkzELMAkGA1UEBhMCRlIx
DzANBgNVBAgMBlJhZGl1czESMBAGA1UEBwwJU29tZXdoZXJlMRUwEwYDVQQKDAxF
eGFtcGxlIEluYy4xIDAeBgkqhkiG9w0BCQEWEWFkbWluQGV4YW1wbGUub3JnMSYw
JAYDVQQDDB1FeGFtcGxlIENlcnRpZmljYXRlIEF1dGhvcml0eTAeFw0xNzA5MDkw
MjQwMDdaFw0xNzExMDgwMjQwMDdaMHwxCzAJBgNVBAYTAkZSMQ8wDQYDVQQIDAZS
YWRpdXMxFTATBgNVBAoMDEV4YW1wbGUgSW5jLjEjMCEGA1UEAwwaRXhhbXBsZSBT
ZXJ2ZXIgQ2VydGlmaWNhdGUxIDAeBgkqhkiG9w0BCQEWEWFkbWluQGV4YW1wbGUu
b3JnMIIBIjANBgkqhkiG9w0BAQEFAAOCAQ8AMIIBCgKCAQEAk1kWn4ZuP0+ucAKF
+9zmKX6ztYixzn8XmDybQA6b9QyOyncJAs2VxD0FkkWMtNvzjd0n4jEyAjdBwZu5
IhBpCa7Krdxd4kOA69SqxuemGiH1RNhrBDY1xJT9NU893RfhI4YCJ2YI2YYoXsu7
3mWata5R2UYfGUHGHky5Yg0uxITwmpdpqUddl2SHttkZuRyDDApZakwMRtlbRYyo
TzfR7s2Z8B0OLlQI2Y1OsJ9UgnNAdZxsXc7o8DN3txzqj5YFIjWmS/JzWm/PdLze
A+vCKp7IukBR7b5+srNfC/CsRzNuwcTbooxZEtKyFqJk703Qjb+OZ92v7X4Lsjlx
Ny/TJQIDAQABo08wTTATBgNVHSUEDDAKBggrBgEFBQcDATA2BgNVHR8ELzAtMCug
KaAnhiVodHRwOi8vd3d3LmV4YW1wbGUuY29tL2V4YW1wbGVfY2EuY3JsMA0GCSqG
SIb3DQEBCwUAA4IBAQCkn4It+GCwtHlwz6A8FGxgF/gN1udSiMooeY/s0nlGCsaO
721eH2pkoLXemfij1fJ8j76fP/cX28xsZqU1pjfjAlvHGiqGOPb3l/uxVP/fFiQH
EQrADUUJB1b/iI1e78SegWTEB9SKehlS3KuYDv7AEaUHiCWF9CYNMU9v4VPNxwiv
x3pfxim/eavpQdXwXoU52FL+TEVr6P/MrhCKVW7KfxRzUHFwnzqiCjnutAyW9zA4
xxIU3BYQUsYJOE81gDWYhCNGJIWHyNNbsyaTTtD0DJW6pjXCEj5OifdlOLMQHuqC
Y1bdDPWF7n79pAu/vZAV7WNBPICiVfp3Gphp38hx
-----END CERTIFICATE-----
